; Function Attrs: nounwind uwtable
define ptr @l_Lean_Lsp_ModuleRefs_findAt___boxed(ptr noundef %0, ptr noundef %1, ptr noundef %2) local_unnamed_addr #0 {
  %4 = ptrtoint ptr %2 to i64
  %5 = lshr i64 %4, 1
  %6 = trunc i64 %5 to i8
  %7 = and i64 %4, 1
  %.not = icmp eq i64 %7, 0
  br i1 %.not, label %8, label %lean_dec.exit

8:                                                ; preds = %3
  %9 = load i32, ptr %2, align 4, !tbaa !8
  %10 = icmp sgt i32 %9, 1
  br i1 %10, label %11, label %13, !prof !11

11:                                               ; preds = %8
  %12 = add nsw i32 %9, -1
  store i32 %12, ptr %2, align 4, !tbaa !8
  br label %lean_dec.exit

13:                                               ; preds = %8
  %.not.i = icmp eq i32 %9, 0
  br i1 %.not.i, label %lean_dec.exit, label %14

14:                                               ; preds = %13
  tail call void @lean_dec_ref_cold(ptr noundef nonnull %2) #8
  br label %lean_dec.exit

lean_dec.exit:                                    ; preds = %14, %13, %11, %3
  %15 = load ptr, ptr @l_Lean_Server_RefInfo_empty___closed__1, align 8, !tbaa !4
  %16 = tail call ptr @l_Std_DTreeMap_Internal_Impl_forInStep___at_Lean_Lsp_ModuleRefs_findAt___spec__1(ptr noundef %1, i8 noundef zeroext %6, ptr noundef %15, ptr noundef %0)
  %17 = getelementptr inbounds nuw i8, ptr %16, i64 8
  %18 = load ptr, ptr %17, align 8, !tbaa !4
  %19 = ptrtoint ptr %18 to i64
  %20 = and i64 %19, 1
  %.not.i5 = icmp eq i64 %20, 0
  br i1 %.not.i5, label %21, label %lean_inc.exit.i

21:                                               ; preds = %lean_dec.exit
  %.val.i.i = load i32, ptr %18, align 4, !tbaa !8
  %22 = icmp sgt i32 %.val.i.i, 0
  br i1 %22, label %23, label %25, !prof !11

23:                                               ; preds = %21
  %24 = add nuw i32 %.val.i.i, 1
  store i32 %24, ptr %18, align 4, !tbaa !8
  br label %lean_inc.exit.i

25:                                               ; preds = %21
  %.not.i7.i = icmp eq i32 %.val.i.i, 0
  br i1 %.not.i7.i, label %lean_inc.exit.i, label %26

26:                                               ; preds = %25
  tail call void @lean_inc_ref_cold(ptr noundef nonnull %18) #8
  br label %lean_inc.exit.i

lean_inc.exit.i:                                  ; preds = %26, %25, %23, %lean_dec.exit
  %27 = ptrtoint ptr %16 to i64
  %28 = and i64 %27, 1
  %.not8.i = icmp eq i64 %28, 0
  br i1 %.not8.i, label %29, label %l_Lean_Lsp_ModuleRefs_findAt.exit

29:                                               ; preds = %lean_inc.exit.i
  %30 = load i32, ptr %16, align 4, !tbaa !8
  %31 = icmp sgt i32 %30, 1
  br i1 %31, label %32, label %34, !prof !11

32:                                               ; preds = %29
  %33 = add nsw i32 %30, -1
  store i32 %33, ptr %16, align 4, !tbaa !8
  br label %l_Lean_Lsp_ModuleRefs_findAt.exit

34:                                               ; preds = %29
  %.not.i.i = icmp eq i32 %30, 0
  br i1 %.not.i.i, label %l_Lean_Lsp_ModuleRefs_findAt.exit, label %35

35:                                               ; preds = %34
  tail call void @lean_dec_ref_cold(ptr noundef nonnull %16) #8
  br label %l_Lean_Lsp_ModuleRefs_findAt.exit

l_Lean_Lsp_ModuleRefs_findAt.exit:                ; preds = %lean_inc.exit.i, %32, %34, %35
  ret ptr %18
}